; ModuleID = '44/1231.c'
source_filename = "44/1231.c"
target datalayout = "e-m:e-p270:32:32-p271:32:32-p272:64:64-i64:64-f80:128-n8:16:32:64-S128"
target triple = "x86_64-pc-linux-gnu"

@.str = private unnamed_addr constant [3 x i8] c"%d\00", align 1
@.str.1 = private unnamed_addr constant [4 x i8] c"%d\0A\00", align 1

; Function Attrs: noinline nounwind uwtable
define dso_local i32 @main(i32 %0, i8** %1) #0 {
  %3 = alloca i32, align 4
  %4 = alloca i32, align 4
  %5 = alloca i8**, align 8
  %6 = alloca i32, align 4
  %7 = alloca i32, align 4
  %8 = alloca i32, align 4
  store i32 0, i32* %3, align 4
  store i32 %0, i32* %4, align 4
  store i8** %1, i8*** %5, align 8
  store i32 0, i32* %8, align 4
  br label %9

9:                                                ; preds = %12, %2
  %10 = load i32, i32* %8, align 4
  %11 = icmp slt i32 %10, 6
  br i1 %11, label %12, label %20

12:                                               ; preds = %9
  %13 = call i32 (i8*, ...) @__isoc99_scanf(i8* getelementptr inbounds ([3 x i8], [3 x i8]* @.str, i64 0, i64 0), i32* %6)
  %14 = load i32, i32* %6, align 4
  %15 = call i32 @a(i32 %14)
  store i32 %15, i32* %7, align 4
  %16 = load i32, i32* %7, align 4
  %17 = call i32 (i8*, ...) @printf(i8* getelementptr inbounds ([4 x i8], [4 x i8]* @.str.1, i64 0, i64 0), i32 %16)
  %18 = load i32, i32* %8, align 4
  %19 = add nsw i32 %18, 1
  store i32 %19, i32* %8, align 4
  br label %9

20:                                               ; preds = %9
  ret i32 0
}

declare dso_local i32 @__isoc99_scanf(i8*, ...) #1

; Function Attrs: noinline nounwind uwtable
define dso_local i32 @a(i32 %0) #0 {
  %2 = alloca i32, align 4
  %3 = alloca i32, align 4
  store i32 %0, i32* %2, align 4
  store i32 0, i32* %3, align 4
  br label %4

4:                                                ; preds = %7, %1
  %5 = load i32, i32* %2, align 4
  %6 = icmp ne i32 %5, 0
  br i1 %6, label %7, label %15

7:                                                ; preds = %4
  %8 = load i32, i32* %3, align 4
  %9 = mul nsw i32 %8, 10
  %10 = load i32, i32* %2, align 4
  %11 = srem i32 %10, 10
  %12 = add nsw i32 %9, %11
  store i32 %12, i32* %3, align 4
  %13 = load i32, i32* %2, align 4
  %14 = sdiv i32 %13, 10
  store i32 %14, i32* %2, align 4
  br label %4

15:                                               ; preds = %4
  %16 = load i32, i32* %3, align 4
  ret i32 %16
}

declare dso_local i32 @printf(i8*, ...) #1


!llvm.module.flags = !{!0}
!llvm.ident = !{!1}

!0 = !{i32 1, !"wchar_size", i32 4}
!1 = !{!"clang version 10.0.0-4ubuntu1 "}
